(lp1
S'Puser'
p2
aS'Clock strikes twelve'
p3
aS'Kine er kul'
p4
aS'Kine er kul'
p5
aS'Kine er kul'
p6
aS'Kine er kul'
p7
aS'Kine er kul'
p8
aS'Kine er kul'
p9
aS'Kine er kul'
p10
aS'test'
p11
aS'test'
p12
aS'Kine er kul'
p13
aS'So is Christian'
p14
aS'New post'
p15
aS'FIRST'
p16
aS":( Damn, I wasn't"
p17
aS'Kos'
p18
aS'Mos'
p19
aS'Good morning'
p20
aS'Good night'
p21
aS'TISS'
p22
a.