(lp1
S'Kine er kul'
p2
aS'Kine er kul'
p3
aS'Kine er kul'
p4
aS'Kine er kul'
p5
aS'Kine er kul'
p6
aS'Kine er kul'
p7
aS'Kine er kul'
p8
aS'test'
p9
aS'test'
p10
aS'Kine er kul'
p11
aS'So is Christian'
p12
aS'New post'
p13
aS'FIRST'
p14
aS":( Damn, I wasn't"
p15
aS'Kos'
p16
aS'Mos'
p17
aS'Good morning'
p18
aS'Good night'
p19
aS'TISS'
p20
a.