(lp1
S' Sat post 2'
p2
aS' Sat post 2'
p3
aS' Sat post 2'
p4
aS' Sat post 2'
p5
aS' Sat post 2'
p6
aS' Sat post 2'
p7
aS' Sat post 2'
p8
aS' Sat post 2'
p9
aS' Sat post 2'
p10
aS' Sat post 2'
p11
aS' Sat post 2'
p12
aS' Sat post 2'
p13
aS' Sat post 2'
p14
aS' Sat post 2'
p15
aS' Sat post 2'
p16
aS' Sat post 2'
p17
aS' Sat post 2'
p18
aS' Sat post 2'
p19
aS' Sat post 2'
p20
aS' Sat post 2'
p21
aS' Sat post 2'
p22
aS' Sat post 2'
p23
aS' Sat post 2'
p24
aS' Sat post 2'
p25
aS' Sat post 2'
p26
aS' Sat post 2'
p27
aS' Sat post 2'
p28
aS' Sat post 2'
p29
aS' Sat post 2'
p30
aS' Sat post 2'
p31
aS' Sat post 2'
p32
aS' Sat post 2'
p33
aS' Sat post 2'
p34
aS' Sat post 2'
p35
aS' Sat post 2'
p36
aS' Sat post 2'
p37
aS' Sat post 2'
p38
aS' Sat post 2'
p39
aS' Sat post 2'
p40
aS' Sat post 2'
p41
aS' Sat post 2'
p42
aS' Sat post 2'
p43
aS' Sat post 2'
p44
aS' Sat post 2'
p45
aS' Sat post 2'
p46
aS' Sat post 2'
p47
aS' Sat post 2'
p48
aS' Sat post 2'
p49
aS' Sat post 2'
p50
aS' Sat post 2'
p51
aS' Sat post 2'
p52
aS' Sat post 2'
p53
aS' Sat post 2'
p54
aS' Sat post 2'
p55
aS' Sat post 2'
p56
aS' Sat post 2'
p57
aS' Sat post 2'
p58
aS' Sat post 2'
p59
aS' Sat post 2'
p60
aS' Sat post 2'
p61
aS' Sat post 2'
p62
aS' Sat post 2'
p63
aS' Sat post 2'
p64
aS' Sat post 2'
p65
aS' Sat post 2'
p66
aS' Sat post 2'
p67
aS' Sat post 2'
p68
aS' Sat post 2'
p69
aS' Sat post 2'
p70
aS' Sat post 2'
p71
aS' Sat post 2'
p72
aS' Sat post 2'
p73
aS' Sat post 2'
p74
aS' Sat post 2'
p75
aS' Sat post 2'
p76
aS' Sat post 2'
p77
aS' Sat post 2'
p78
aS' Sat post 2'
p79
aS' Sat post 2'
p80
aS' Sat post 2'
p81
aS' Sat post 2'
p82
aS' Sat post 2'
p83
aS' Sat post 2'
p84
aS' Sat post 2'
p85
aS' Sat post 2'
p86
aS' Sat post 2'
p87
aS' Sat post 2'
p88
aS' Sat post 2'
p89
aS' Sat post 2'
p90
aS' Sat post 2'
p91
aS' Sat post 2'
p92
aS' Sat post 2'
p93
aS' Sat post 2'
p94
aS' Sat post 2'
p95
aS' Sat post 2'
p96
aS' Sat post 2'
p97
aS' Sat post 2'
p98
aS' Sat post 2'
p99
aS' Sat post 2'
p100
aS' Sat post 2'
p101
aS' Sat post 2'
p102
aS' Sat post 2'
p103
aS' Sat post 2'
p104
aS' Sat post 2'
p105
aS' Sat post 2'
p106
aS' Sat post 2'
p107
aS' Sat post 2'
p108
aS' Sat post 2'
p109
aS' Sat post 2'
p110
aS' Sat post 2'
p111
aS' Sat post 2'
p112
aS' Sat post 2'
p113
aS' Sat post 2'
p114
aS' Sat post 2'
p115
aS' Sat post 2'
p116
aS' Sat post 2'
p117
aS' Sat post 2'
p118
aS' Sat post 2'
p119
aS' Sat post 2'
p120
aS' Sat post 2'
p121
aS' Sat post 2'
p122
aS' Sat post 2'
p123
aS' Sat post 2'
p124
aS' Sat post 2'
p125
aS' Sat post 2'
p126
aS' Sat post 2'
p127
aS' Sat post 2'
p128
aS' Sat post 2'
p129
aS' Sat post 2'
p130
aS' Sat post 2'
p131
aS' Sat post 2'
p132
aS' Sat post 2'
p133
aS' Sat post 2'
p134
aS' Sat post 2'
p135
aS' Sat post 2'
p136
aS' Sat post 2'
p137
aS' Sat post 2'
p138
aS' Sat post 2'
p139
aS' Sat post 2'
p140
aS' Sat post 2'
p141
aS' Sat post 2'
p142
aS' Sat post 2'
p143
aS' Sat post 2'
p144
aS' Sat post 2'
p145
aS' Sat post 2'
p146
aS' Sat post 2'
p147
aS' Sat post 2'
p148
aS' Sat post 2'
p149
aS' Sat post 2'
p150
aS' Sat post 2'
p151
aS' Sat post 2'
p152
aS' Sat post 2'
p153
aS' Sat post 2'
p154
aS' Sat post 2'
p155
aS' Sat post 2'
p156
aS' Sat post 2'
p157
aS' Sat post 2'
p158
aS' Sat post 2'
p159
aS' Sat post 2'
p160
aS' Sat post 2'
p161
aS' Sat post 2'
p162
aS' Sat post 2'
p163
aS' Sat post 2'
p164
aS' Sat post 2'
p165
aS' Sat post 2'
p166
aS' Sat post 2'
p167
aS' Sat post 2'
p168
aS' Sat post 2'
p169
aS' Sat post 2'
p170
aS' Sat post 2'
p171
aS' Sat post 2'
p172
aS' Sat post 2'
p173
aS' Sat post 2'
p174
aS' Sat post 2'
p175
aS' Sat post 2'
p176
aS' Sat post 2'
p177
aS' Sat post 2'
p178
aS' Sat post 2'
p179
aS' Sat post 2'
p180
aS' Sat post 2'
p181
aS' Sat post 2'
p182
aS' Sat post 2'
p183
aS' Sat post 2'
p184
aS' Sat post 2'
p185
aS' Sat post 2'
p186
aS' Sat post 2'
p187
aS' Sat post 2'
p188
aS' Sat post 2'
p189
aS' Sat post 2'
p190
aS' Sat post 2'
p191
aS' Sat post 2'
p192
aS' Sat post 2'
p193
aS' Sat post 2'
p194
aS' Sat post 2'
p195
aS' Sat post 2'
p196
aS' Sat post 2'
p197
aS' Sat post 2'
p198
aS' Sat post 2'
p199
aS' Sat post 2'
p200
aS' Sat post 2'
p201
aS' Sat post 2'
p202
aS' Sat post 2'
p203
aS' Sat post 2'
p204
aS' Sat post 2'
p205
aS' Sat post 2'
p206
aS' Sat post 2'
p207
aS' Sat post 2'
p208
aS' Sat post 2'
p209
aS' Sat post 2'
p210
aS' Sat post 2'
p211
aS' Sat post 2'
p212
aS' Sat post 2'
p213
aS' Sat post 2'
p214
aS' Sat post 2'
p215
aS' Sat post 2'
p216
aS' Sat post 2'
p217
aS' Sat post 2'
p218
aS' Sat post 2'
p219
aS' Sat post 2'
p220
aS' Sat post 2'
p221
aS' Sat post 2'
p222
aS' Sat post 2'
p223
aS' Sat post 2'
p224
aS' Sat post 2'
p225
aS' Sat post 2'
p226
aS' Sat post 2'
p227
aS' Sat post 2'
p228
aS' Sat post 2'
p229
aS' Sat post 2'
p230
aS' Sat post 2'
p231
aS' Sat post 2'
p232
aS' Sat post 2'
p233
aS' Sat post 2'
p234
aS' Sat post 2'
p235
aS' Sat post 2'
p236
aS' Sat post 2'
p237
aS' Sat post 2'
p238
aS' Sat post 2'
p239
aS' Sat post 2'
p240
aS' Sat post 2'
p241
aS' Sat post 2'
p242
aS' Sat post 2'
p243
aS' Sat post 2'
p244
aS' Sat post 2'
p245
aS' Sat post 2'
p246
aS' Sat post 2'
p247
aS' Sat post 2'
p248
aS' Sat post 2'
p249
aS' Sat post 2'
p250
aS' Sat post 2'
p251
aS' Sat post 2'
p252
aS' Sat post 2'
p253
aS' Sat post 2'
p254
aS' Sat post 2'
p255
aS' Sat post 2'
p256
aS' Sat post 2'
p257
aS' Sat post 2'
p258
aS' Sat post 2'
p259
aS' Sat post 2'
p260
aS' Sat post 2'
p261
aS' Sat post 2'
p262
aS' Sat post 2'
p263
aS' Sat post 2'
p264
aS' Sat post 2'
p265
aS' Sat post 2'
p266
aS' Sat post 2'
p267
aS' Sat post 2'
p268
aS' Sat post 2'
p269
aS' Sat post 2'
p270
aS' Sat post 2'
p271
aS' Sat post 2'
p272
aS' Sat post 2'
p273
aS' Sat post 2'
p274
aS' Sat post 2'
p275
aS' Sat post 2'
p276
aS' Sat post 2'
p277
aS' Sat post 2'
p278
aS' Sat post 2'
p279
aS' Sat post 2'
p280
aS' Sat post 2'
p281
aS' Sat post 2'
p282
aS' Sat post 2'
p283
aS' Sat post 2'
p284
aS' Sat post 2'
p285
aS' Sat post 2'
p286
aS' Sat post 2'
p287
aS' Sat post 2'
p288
aS' Sat post 2'
p289
aS' Sat post 2'
p290
aS' Sat post 2'
p291
aS' Sat post 2'
p292
aS' Sat post 2'
p293
aS' Sat post 2'
p294
aS' Sat post 2'
p295
aS' Sat post 2'
p296
aS' Sat post 2'
p297
aS' Sat post 2'
p298
aS' Sat post 2'
p299
aS' Sat post 2'
p300
aS' Sat post 2'
p301
aS' Sat post 2'
p302
aS' Sat post 2'
p303
aS' Sat post 2'
p304
aS' Sat post 2'
p305
aS' Sat post 2'
p306
aS' Sat post 2'
p307
aS' Sat post 2'
p308
aS' Sat post 2'
p309
aS' Sat post 2'
p310
aS' Sat post 2'
p311
aS' Sat post 2'
p312
aS' Sat post 2'
p313
aS' Sat post 2'
p314
aS' Sat post 2'
p315
aS' Sat post 2'
p316
aS' Sat post 2'
p317
aS' Sat post 2'
p318
aS' Sat post 2'
p319
aS' Sat post 2'
p320
aS' Sat post 2'
p321
aS' Sat post 2'
p322
aS' Sat post 2'
p323
aS' Sat post 2'
p324
aS' Sat post 2'
p325
aS' Sat post 2'
p326
aS' Sat post 2'
p327
aS' Sat post 2'
p328
aS' Sat post 2'
p329
aS' Sat post 2'
p330
aS' Sat post 2'
p331
aS' Sat post 2'
p332
aS' Sat post 2'
p333
aS' Sat post 2'
p334
aS' Sat post 2'
p335
aS' Sat post 2'
p336
aS' Sat post 2'
p337
aS' Sat post 2'
p338
aS' Sat post 2'
p339
aS' Sat post 2'
p340
aS' Sat post 2'
p341
aS' Sat post 2'
p342
aS' Sat post 2'
p343
aS' Sat post 2'
p344
aS' Sat post 2'
p345
aS' Sat post 2'
p346
aS' Sat post 2'
p347
aS' Sat post 2'
p348
aS' Sat post 2'
p349
aS' Sat post 2'
p350
aS' Sat post 2'
p351
aS' Sat post 2'
p352
aS' Sat post 2'
p353
aS' Sat post 2'
p354
aS' Sat post 2'
p355
aS' Sat post 2'
p356
aS' Sat post 2'
p357
aS' Sat post 2'
p358
aS' Sat post 2'
p359
aS' Sat post 2'
p360
aS' Sat post 2'
p361
aS' Sat post 2'
p362
aS' Sat post 2'
p363
aS' Sat post 2'
p364
aS' Sat post 2'
p365
aS' Sat post 2'
p366
aS' Sat post 2'
p367
aS' Sat post 2'
p368
aS' Sat post 2'
p369
aS' Sat post 2'
p370
aS' Sat post 2'
p371
aS' Sat post 2'
p372
aS' Sat post 2'
p373
aS' Sat post 2'
p374
aS' Sat post 2'
p375
aS' Sat post 2'
p376
aS' Sat post 2'
p377
aS' Sat post 2'
p378
aS' Sat post 2'
p379
aS' Sat post 2'
p380
aS' Sat post 2'
p381
aS' Sat post 2'
p382
aS' Sat post 2'
p383
aS' Sat post 2'
p384
aS' Sat post 2'
p385
aS' Sat post 2'
p386
aS' Sat post 2'
p387
aS' Sat post 2'
p388
aS' Sat post 2'
p389
aS' Sat post 2'
p390
aS' Sat post 2'
p391
aS' Sat post 2'
p392
aS' Sat post 2'
p393
aS' Sat post 2'
p394
aS' Sat post 2'
p395
aS' Sat post 2'
p396
aS' Sat post 2'
p397
aS' Sat post 2'
p398
aS' Sat post 2'
p399
aS' Sat post 2'
p400
aS' Sat post 2'
p401
aS' Sat post 2'
p402
aS' Sat post 2'
p403
aS' Sat post 2'
p404
aS' Sat post 2'
p405
aS' Sat post 2'
p406
aS' Sat post 2'
p407
aS' Sat post 2'
p408
aS' Sat post 2'
p409
aS' Sat post 2'
p410
aS' Sat post 2'
p411
aS' Sat post 2'
p412
aS' Sat post 2'
p413
aS' Sat post 2'
p414
aS' Sat post 2'
p415
aS' Sat post 2'
p416
aS' Sat post 2'
p417
aS' Sat post 2'
p418
aS' Sat post 2'
p419
aS' Sat post 2'
p420
aS' Sat post 2'
p421
aS' Sat post 2'
p422
aS' Sat post 2'
p423
aS' Sat post 2'
p424
aS' Sat post 2'
p425
aS' Sat post 2'
p426
aS' Sat post 2'
p427
aS' Sat post 2'
p428
aS' Sat post 2'
p429
aS' Sat post 2'
p430
aS' Sat post 2'
p431
aS' Sat post 2'
p432
aS' Sat post 2'
p433
aS' Sat post 2'
p434
aS' Sat post 2'
p435
aS' Sat post 2'
p436
aS' Sat post 2'
p437
aS' Sat post 2'
p438
aS' Sat post 2'
p439
aS' Sat post 2'
p440
aS' Sat post 2'
p441
aS' Sat post 2'
p442
aS' Sat post 2'
p443
aS' Sat post 2'
p444
aS' Sat post 2'
p445
aS' Sat post 2'
p446
aS' Sat post 2'
p447
aS' Sat post 2'
p448
aS' Sat post 2'
p449
aS' Sat post 2'
p450
aS' Sat post 2'
p451
aS' Sat post 2'
p452
aS' Sat post 2'
p453
aS' Sat post 2'
p454
aS' Sat post 2'
p455
aS' Sat post 2'
p456
aS' Sat post 2'
p457
aS' Sat post 2'
p458
aS' Sat post 2'
p459
aS' Sat post 2'
p460
aS' Sat post 2'
p461
aS' Sat post 2'
p462
aS' Sat post 2'
p463
aS' Sat post 2'
p464
aS' Sat post 2'
p465
aS' Sat post 2'
p466
aS' Sat post 2'
p467
aS' Sat post 2'
p468
aS' Sat post 2'
p469
aS' Sat post 2'
p470
aS' Sat post 2'
p471
aS' Sat post 2'
p472
aS' Sat post 2'
p473
aS' Sat post 2'
p474
aS' Sat post 2'
p475
aS' Sat post 2'
p476
aS' Sat post 2'
p477
aS' Sat post 2'
p478
aS' Sat post 2'
p479
aS' Sat post 2'
p480
aS' Sat post 2'
p481
aS' Sat post 2'
p482
aS' Sat post 2'
p483
aS' Sat post 2'
p484
aS' Sat post 2'
p485
aS' Sat post 2'
p486
aS' Sat post 2'
p487
aS' Sat post 2'
p488
aS' Sat post 2'
p489
aS' Sat post 2'
p490
aS' Sat post 2'
p491
aS' Sat post 2'
p492
aS' Sat post 2'
p493
aS' Sat post 2'
p494
aS' Sat post 2'
p495
aS' Sat post 2'
p496
aS' Sat post 2'
p497
aS' Sat post 2'
p498
aS' Sat post 2'
p499
aS' Sat post 2'
p500
aS' Sat post 2'
p501
aS' Sat post 2'
p502
aS' Sat post 2'
p503
aS' Sat post 2'
p504
aS' Sat post 2'
p505
aS' Sat post 2'
p506
aS' Sat post 2'
p507
aS' Sat post 2'
p508
aS' Sat post 2'
p509
aS' Sat post 2'
p510
aS' Sat post 2'
p511
aS' Sat post 2'
p512
aS' Sat post 2'
p513
aS' Sat post 2'
p514
aS' Sat post 2'
p515
aS' Sat post 2'
p516
aS' Sat post 2'
p517
aS' Sat post 2'
p518
aS' Sat post 2'
p519
aS' Sat post 2'
p520
aS' Sat post 2'
p521
aS' Sat post 2'
p522
aS' Sat post 2'
p523
aS' Sat post 2'
p524
aS' Sat post 2'
p525
aS' Sat post 2'
p526
aS' Sat post 2'
p527
aS' Sat post 2'
p528
aS' Sat post 2'
p529
aS' Sat post 2'
p530
aS' Sat post 2'
p531
aS' Sat post 2'
p532
aS' Sat post 2'
p533
aS' Sat post 2'
p534
aS' Sat post 2'
p535
aS' Sat post 2'
p536
aS' Sat post 2'
p537
aS' Sat post 2'
p538
aS' Sat post 2'
p539
aS' Sat post 2'
p540
aS' Sat post 2'
p541
aS' Sat post 2'
p542
aS' Sat post 2'
p543
aS' Sat post 2'
p544
aS' Sat post 2'
p545
aS' Sat post 2'
p546
aS' Sat post 2'
p547
aS' Sat post 2'
p548
aS' Sat post 2'
p549
aS' Sat post 2'
p550
aS' Sat post 2'
p551
aS' Sat post 2'
p552
aS' Sat post 2'
p553
aS' Sat post 2'
p554
aS' Sat post 2'
p555
aS' Sat post 2'
p556
aS'Saturday Post'
p557
aS'Puser'
p558
aS'Clock strikes twelve'
p559
aS'Kine er kul'
p560
aS'Kine er kul'
p561
aS'Kine er kul'
p562
aS'Kine er kul'
p563
aS'Kine er kul'
p564
aS'Kine er kul'
p565
aS'Kine er kul'
p566
aS'test'
p567
aS'test'
p568
aS'Kine er kul'
p569
aS'So is Christian'
p570
aS'New post'
p571
aS'FIRST'
p572
aS":( Damn, I wasn't"
p573
aS'Kos'
p574
aS'Mos'
p575
aS'Good morning'
p576
aS'Good night'
p577
aS'TISS'
p578
a.